ccopy_reg
_reconstructor
p0
(cpandas.core.series
Series
p1
c__builtin__
object
p2
Ntp3
Rp4
(dp5
S'_metadata'
p6
(lp7
S'name'
p8
asS'_data'
p9
g0
(cpandas.core.internals
SingleBlockManager
p10
g2
Ntp11
Rp12
((lp13
cpandas.core.indexes.base
_new_Index
p14
(cpandas.core.indexes.base
Index
p15
(dp16
S'data'
p17
cnumpy.core.multiarray
_reconstruct
p18
(cnumpy
ndarray
p19
(I0
tp20
S'b'
p21
tp22
Rp23
(I1
(I8
tp24
cnumpy
dtype
p25
(S'O8'
p26
I0
I1
tp27
Rp28
(I3
S'|'
p29
NNNI-1
I-1
I63
tp30
bI00
(lp31
S'nbhc.us'
p32
aS'eqco.us'
p33
aS'flic.us'
p34
aS'wpz.us'
p35
aS'grvy.us'
p36
aS'lgcyo.us'
p37
aS'iba.us'
p38
aS'ncs.us'
p39
atp40
bsg8
Nstp41
Rp42
a(lp43
g18
(g19
(I0
tp44
g21
tp45
Rp46
(I1
(I8
tp47
g25
(S'f8'
p48
I0
I1
tp49
Rp50
(I3
S'<'
p51
NNNI-1
I-1
I0
tp52
bI00
S'\x15\xfa\x82vV;\xc9?d. 5\x8e\xa9\xda?\xc7\xe6\xb8K3\xe2\xbd?\x93.g 2E\xb9?\xd9z\x1eTs:\x89?\xcaO@,\x0c\x9a{?L\xf8A\xfd5Y\xb3?Lp\xcf\xa7\x8f\x81\xb3?'
p53
tp54
ba(lp55
g14
(g15
(dp56
g17
g18
(g19
(I0
tp57
g21
tp58
Rp59
(I1
(I8
tp60
g28
I00
(lp61
g32
ag33
ag34
ag35
ag36
ag37
ag38
ag39
atp62
bsg8
Nstp63
Rp64
a(dp65
S'0.14.1'
p66
(dp67
S'axes'
p68
g13
sS'blocks'
p69
(lp70
(dp71
S'mgr_locs'
p72
c__builtin__
slice
p73
(I0
I8
I1
tp74
Rp75
sS'values'
p76
g46
sasstp77
bsS'_typ'
p78
S'series'
p79
sg8
Nsb.