ccopy_reg
_reconstructor
p0
(cpandas.core.series
Series
p1
c__builtin__
object
p2
Ntp3
Rp4
(dp5
S'_metadata'
p6
(lp7
S'name'
p8
asS'_data'
p9
g0
(cpandas.core.internals
SingleBlockManager
p10
g2
Ntp11
Rp12
((lp13
cpandas.core.indexes.base
_new_Index
p14
(cpandas.core.indexes.base
Index
p15
(dp16
S'data'
p17
cnumpy.core.multiarray
_reconstruct
p18
(cnumpy
ndarray
p19
(I0
tp20
S'b'
p21
tp22
Rp23
(I1
(I16
tp24
cnumpy
dtype
p25
(S'O8'
p26
I0
I1
tp27
Rp28
(I3
S'|'
p29
NNNI-1
I-1
I63
tp30
bI00
(lp31
S'eqco.us'
p32
aS'wbig.us'
p33
aS'jpem.us'
p34
aS'wpz.us'
p35
aS'iba.us'
p36
aS'grvy.us'
p37
aS'lgcyo.us'
p38
aS'flic.us'
p39
aS'jmu.us'
p40
aS'wti.us'
p41
aS'mygn.us'
p42
aS'kelya.us'
p43
aS'ncs.us'
p44
aS'gpk.us'
p45
aS'nbhc.us'
p46
aS'dyn_a.us'
p47
atp48
bsg8
Nstp49
Rp50
a(lp51
g18
(g19
(I0
tp52
g21
tp53
Rp54
(I1
(I16
tp55
g25
(S'f8'
p56
I0
I1
tp57
Rp58
(I3
S'<'
p59
NNNI-1
I-1
I0
tp60
bI00
S'\x9fP0b\x03B\xca?f\x07\xad\xf3`\xe2\xd9?;\x05\xba\xec6\x14\xb3?<hZO\x8a\x1c\xa8?\x1a\xb9\xaa\xb6\xa4\xf8\xa1?x\x02w\xb2\xe1Kx?%N\x1a\xbe\xf3\xc3i?W\xddeh*J\xaa?\xc8\xb7\xeak%\xbbh?\xf6$\xad08&\x8a?\x04\xdds\x1b\xc3\x11\x8d?T\xcf\x9c\xec\xab\x82\x9f?V\xcd\x9bc\xfa\x08\x99?~\xf31\x1c\xf6\x1cx?\rh\xbaZI\xed\xb2?\x9b\xac\xa2S\xc9\xe6\x80?'
p61
tp62
ba(lp63
g14
(g15
(dp64
g17
g18
(g19
(I0
tp65
g21
tp66
Rp67
(I1
(I16
tp68
g28
I00
(lp69
g32
ag33
ag34
ag35
ag36
ag37
ag38
ag39
ag40
ag41
ag42
ag43
ag44
ag45
ag46
ag47
atp70
bsg8
Nstp71
Rp72
a(dp73
S'0.14.1'
p74
(dp75
S'axes'
p76
g13
sS'blocks'
p77
(lp78
(dp79
S'mgr_locs'
p80
c__builtin__
slice
p81
(I0
I16
I1
tp82
Rp83
sS'values'
p84
g54
sasstp85
bsS'_typ'
p86
S'series'
p87
sg8
Nsb.