ccopy_reg
_reconstructor
p0
(cpandas.core.series
Series
p1
c__builtin__
object
p2
Ntp3
Rp4
(dp5
S'_metadata'
p6
(lp7
S'name'
p8
asS'_data'
p9
g0
(cpandas.core.internals
SingleBlockManager
p10
g2
Ntp11
Rp12
((lp13
cpandas.core.indexes.base
_new_Index
p14
(cpandas.core.indexes.base
Index
p15
(dp16
S'data'
p17
cnumpy.core.multiarray
_reconstruct
p18
(cnumpy
ndarray
p19
(I0
tp20
S'b'
p21
tp22
Rp23
(I1
(I33
tp24
cnumpy
dtype
p25
(S'O8'
p26
I0
I1
tp27
Rp28
(I3
S'|'
p29
NNNI-1
I-1
I63
tp30
bI00
(lp31
S'wbig.us'
p32
aS'eqco.us'
p33
aS'enrj.us'
p34
aS'grvy.us'
p35
aS'lgcyo.us'
p36
aS'iba.us'
p37
aS'dyn_a.us'
p38
aS'cphi.us'
p39
aS'nxeow.us'
p40
aS'wpz.us'
p41
aS'vrsk.us'
p42
aS'srlp.us'
p43
aS'evep.us'
p44
aS'nbhc.us'
p45
aS'nnvc.us'
p46
aS'jpem.us'
p47
aS'feye.us'
p48
aS'flic.us'
p49
aS'jmu.us'
p50
aS'wti.us'
p51
aS'axas.us'
p52
aS'elp.us'
p53
aS'www.us'
p54
aS'exr.us'
p55
aS'nycb.us'
p56
aS'avt.us'
p57
aS'mygn.us'
p58
aS'ncs.us'
p59
aS'gpk.us'
p60
aS'kelya.us'
p61
aS'rbcaa.us'
p62
aS'thr.us'
p63
aS'mlnt.us'
p64
atp65
bsg8
Nstp66
Rp67
a(lp68
g18
(g19
(I0
tp69
g21
tp70
Rp71
(I1
(I33
tp72
g25
(S'f8'
p73
I0
I1
tp74
Rp75
(I3
S'<'
p76
NNNI-1
I-1
I0
tp77
bI00
S'\x98\x0e\x93\xa6\x01\x89\xd6?\xa7\xf9\x00[D\xdc\xc6?q4N\xd9\x88=O?\xcb\xc6\xa3J\x84Yv?\xfbw\x90eu\xbfg?]\xef\xffi\x1b\x0e\xa0?\xac\xe0b*\x93\x14\x82?\xec<\xa0d\x06VT?^V\xb5\xaeE\x16S?i\x8c@c&\x03\xa1?\x02\xee\xc5|f\xf4\x9f?\x04\x05\xd9ZU\x89\x8f?\x19\xfa\xeb\xab\x90\x80\x91?P6A\x13CH\xb3?\xa3oQ\xae\xfc$v?6a\r\x91\xd4\xbe\xb0?\xa11dt\xcb\xa7j?\xe6\x0eI\x97\x16\x1f\x9b?7\xfc\xfeaYga?\x06\x88\x10\xcf\xd9f\x82?\xd6>\xc0\xab\xea\x03g?\xf30\xe4r\xf0\xf2u?\xe9\xbd=\xd1\x10\xca\x8c?\xb7p.\x0e\x91\x98\x93?\xb5>Q\x04\x86\xaf\x9b?\x83\xcc\xc60\x80\xb3\x80?\xe8\xd0\x1a\x95(\xf9x?K\x97\xfc3\x86\xad\x81?\x14A_\x7f\x8f\xa4c?s\xcc\xe51\xbc:\x8f?2\x94\xff\x8f\xe5b\x8d?\xd3rFC\xc4\x18{?\xc1\xd57\xa4\x97\\m?'
p78
tp79
ba(lp80
g14
(g15
(dp81
g17
g18
(g19
(I0
tp82
g21
tp83
Rp84
(I1
(I33
tp85
g28
I00
(lp86
g32
ag33
ag34
ag35
ag36
ag37
ag38
ag39
ag40
ag41
ag42
ag43
ag44
ag45
ag46
ag47
ag48
ag49
ag50
ag51
ag52
ag53
ag54
ag55
ag56
ag57
ag58
ag59
ag60
ag61
ag62
ag63
ag64
atp87
bsg8
Nstp88
Rp89
a(dp90
S'0.14.1'
p91
(dp92
S'axes'
p93
g13
sS'blocks'
p94
(lp95
(dp96
S'mgr_locs'
p97
c__builtin__
slice
p98
(I0
I33
I1
tp99
Rp100
sS'values'
p101
g71
sasstp102
bsS'_typ'
p103
S'series'
p104
sg8
Nsb.